#include <math.h>
#include <stdio.h>
#include <stdlib.h>
#include <string.h>

void main()
{
	int i,j,k,l,m,n;
	scanf("%d %d",&n,&k);
	for(i=1;;i++)
	{
		m=i*(n-1);
	//	printf("i=%d\n",i);
		for(j=n;j>0;j--)
		{
	//		printf("j=%d\n",j);
			m=m*n/(n-1)+k;
	//		printf("m=%d\n",m);
			if(m%(n-1)!=0)break;
		}
	//		printf("j=%d\n",j);
		if(j==1||j==0)break;
	//	printf("j=%d\n",j);
		if(j>1)continue;
	}
	printf("%d",m);
}
