; ModuleID = '54/867.c'
source_filename = "54/867.c"
target datalayout = "e-m:e-p270:32:32-p271:32:32-p272:64:64-i64:64-f80:128-n8:16:32:64-S128"
target triple = "x86_64-pc-linux-gnu"

@.str = private unnamed_addr constant [6 x i8] c"%d %d\00", align 1
@.str.1 = private unnamed_addr constant [3 x i8] c"%d\00", align 1

; Function Attrs: noinline nounwind uwtable
define dso_local void @main() #0 {
  %1 = alloca i32, align 4
  %2 = alloca i32, align 4
  %3 = alloca i32, align 4
  %4 = alloca i32, align 4
  %5 = alloca i32, align 4
  %6 = alloca i32, align 4
  %7 = call i32 (i8*, ...) @__isoc99_scanf(i8* getelementptr inbounds ([6 x i8], [6 x i8]* @.str, i64 0, i64 0), i32* %6, i32* %3)
  store i32 1, i32* %1, align 4
  br label %8

8:                                                ; preds = %48, %0
  %9 = load i32, i32* %1, align 4
  %10 = load i32, i32* %6, align 4
  %11 = sub nsw i32 %10, 1
  %12 = mul nsw i32 %9, %11
  store i32 %12, i32* %5, align 4
  %13 = load i32, i32* %6, align 4
  store i32 %13, i32* %2, align 4
  br label %14

14:                                               ; preds = %33, %8
  %15 = load i32, i32* %2, align 4
  %16 = icmp sgt i32 %15, 0
  br i1 %16, label %17, label %36

17:                                               ; preds = %14
  %18 = load i32, i32* %5, align 4
  %19 = load i32, i32* %6, align 4
  %20 = mul nsw i32 %18, %19
  %21 = load i32, i32* %6, align 4
  %22 = sub nsw i32 %21, 1
  %23 = sdiv i32 %20, %22
  %24 = load i32, i32* %3, align 4
  %25 = add nsw i32 %23, %24
  store i32 %25, i32* %5, align 4
  %26 = load i32, i32* %5, align 4
  %27 = load i32, i32* %6, align 4
  %28 = sub nsw i32 %27, 1
  %29 = srem i32 %26, %28
  %30 = icmp ne i32 %29, 0
  br i1 %30, label %31, label %32

31:                                               ; preds = %17
  br label %36

32:                                               ; preds = %17
  br label %33

33:                                               ; preds = %32
  %34 = load i32, i32* %2, align 4
  %35 = add nsw i32 %34, -1
  store i32 %35, i32* %2, align 4
  br label %14

36:                                               ; preds = %31, %14
  %37 = load i32, i32* %2, align 4
  %38 = icmp eq i32 %37, 1
  br i1 %38, label %42, label %39

39:                                               ; preds = %36
  %40 = load i32, i32* %2, align 4
  %41 = icmp eq i32 %40, 0
  br i1 %41, label %42, label %43

42:                                               ; preds = %39, %36
  br label %51

43:                                               ; preds = %39
  %44 = load i32, i32* %2, align 4
  %45 = icmp sgt i32 %44, 1
  br i1 %45, label %46, label %47

46:                                               ; preds = %43
  br label %48

47:                                               ; preds = %43
  br label %48

48:                                               ; preds = %47, %46
  %49 = load i32, i32* %1, align 4
  %50 = add nsw i32 %49, 1
  store i32 %50, i32* %1, align 4
  br label %8

51:                                               ; preds = %42
  %52 = load i32, i32* %5, align 4
  %53 = call i32 (i8*, ...) @printf(i8* getelementptr inbounds ([3 x i8], [3 x i8]* @.str.1, i64 0, i64 0), i32 %52)
  ret void
}

declare dso_local i32 @__isoc99_scanf(i8*, ...) #1

declare dso_local i32 @printf(i8*, ...) #1


!llvm.module.flags = !{!0}
!llvm.ident = !{!1}

!0 = !{i32 1, !"wchar_size", i32 4}
!1 = !{!"clang version 10.0.0-4ubuntu1 "}
