; ModuleID = 'source-C-CXX/53/867.c'
source_filename = "source-C-CXX/53/867.c"
target datalayout = "e-m:e-p270:32:32-p271:32:32-p272:64:64-i64:64-f80:128-n8:16:32:64-S128"
target triple = "x86_64-pc-linux-gnu"

@.str = private unnamed_addr constant [6 x i8] c"%d %d\00", align 1
@.str.1 = private unnamed_addr constant [3 x i8] c"%d\00", align 1

; Function Attrs: nofree nounwind sspstrong uwtable
define dso_local void @main() local_unnamed_addr #0 {
  %1 = alloca i32, align 4
  %2 = alloca i32, align 4
  %3 = bitcast i32* %1 to i8*
  call void @llvm.lifetime.start.p0i8(i64 4, i8* nonnull %3) #3
  %4 = bitcast i32* %2 to i8*
  call void @llvm.lifetime.start.p0i8(i64 4, i8* nonnull %4) #3
  %5 = call i32 (i8*, ...) @__isoc99_scanf(i8* getelementptr inbounds ([6 x i8], [6 x i8]* @.str, i64 0, i64 0), i32* nonnull %2, i32* nonnull %1)
  %6 = load i32, i32* %2, align 4, !tbaa !5
  %7 = add nsw i32 %6, -1
  %8 = load i32, i32* %1, align 4
  %9 = icmp sgt i32 %6, 0
  br i1 %9, label %10, label %27

10:                                               ; preds = %0, %21
  %11 = phi i32 [ %23, %21 ], [ 1, %0 ]
  %12 = mul nsw i32 %7, %11
  br label %13

13:                                               ; preds = %10, %24
  %14 = phi i32 [ %12, %10 ], [ %18, %24 ]
  %15 = phi i32 [ %6, %10 ], [ %25, %24 ]
  %16 = mul nsw i32 %14, %6
  %17 = sdiv i32 %16, %7
  %18 = add nsw i32 %8, %17
  %19 = srem i32 %18, %7
  %20 = icmp eq i32 %19, 0
  br i1 %20, label %24, label %21

21:                                               ; preds = %13
  %22 = icmp ult i32 %15, 2
  %23 = add nuw nsw i32 %11, 1
  br i1 %22, label %30, label %10

24:                                               ; preds = %13
  %25 = add nsw i32 %15, -1
  %26 = icmp sgt i32 %15, 1
  br i1 %26, label %13, label %30, !llvm.loop !9

27:                                               ; preds = %0
  %28 = icmp eq i32 %6, 0
  br i1 %28, label %30, label %29

29:                                               ; preds = %27, %29
  br label %29

30:                                               ; preds = %21, %24, %27
  %31 = phi i32 [ -1, %27 ], [ %18, %24 ], [ %18, %21 ]
  %32 = call i32 (i8*, ...) @printf(i8* nonnull dereferenceable(1) getelementptr inbounds ([3 x i8], [3 x i8]* @.str.1, i64 0, i64 0), i32 %31)
  call void @llvm.lifetime.end.p0i8(i64 4, i8* nonnull %4) #3
  call void @llvm.lifetime.end.p0i8(i64 4, i8* nonnull %3) #3
  ret void
}

; Function Attrs: argmemonly mustprogress nofree nosync nounwind willreturn
declare void @llvm.lifetime.start.p0i8(i64 immarg, i8* nocapture) #1

; Function Attrs: nofree nounwind
declare noundef i32 @__isoc99_scanf(i8* nocapture noundef readonly, ...) local_unnamed_addr #2

; Function Attrs: nofree nounwind
declare noundef i32 @printf(i8* nocapture noundef readonly, ...) local_unnamed_addr #2

; Function Attrs: argmemonly mustprogress nofree nosync nounwind willreturn
declare void @llvm.lifetime.end.p0i8(i64 immarg, i8* nocapture) #1


!llvm.module.flags = !{!0, !1, !2, !3}
!llvm.ident = !{!4}

!0 = !{i32 1, !"wchar_size", i32 4}
!1 = !{i32 7, !"PIC Level", i32 2}
!2 = !{i32 7, !"PIE Level", i32 2}
!3 = !{i32 7, !"uwtable", i32 1}
!4 = !{!"clang version 13.0.0"}
!5 = !{!6, !6, i64 0}
!6 = !{!"int", !7, i64 0}
!7 = !{!"omnipotent char", !8, i64 0}
!8 = !{!"Simple C/C++ TBAA"}
!9 = distinct !{!9, !10}
!10 = !{!"llvm.loop.mustprogress"}
